target datalayout = "e-m:e-p270:32:32-p271:32:32-p272:64:64-i64:64-i128:128-f80:128-n8:16:32:64-S128"
target triple = "x86_64-pc-linux-gnu"

; Function Attrs: nounwind uwtable
define internal i32 @string_to_number(ptr noundef %0, ptr noundef %1) #0 {
  %3 = alloca i32, align 4
  %4 = alloca ptr, align 8
  %5 = alloca ptr, align 8
  %6 = alloca ptr, align 8
  %7 = alloca i32, align 4
  store ptr %0, ptr %4, align 8, !tbaa !53
  store ptr %1, ptr %5, align 8, !tbaa !59
  call void @llvm.lifetime.start.p0(i64 8, ptr %6) #8
  %8 = load ptr, ptr %4, align 8, !tbaa !53
  %9 = icmp eq ptr %8, null
  br i1 %9, label %15, label %10

10:                                               ; preds = %2
  %11 = load ptr, ptr %4, align 8, !tbaa !53
  %12 = load i8, ptr %11, align 1, !tbaa !61
  %13 = sext i8 %12 to i32
  %14 = icmp eq i32 %13, 0
  br i1 %14, label %15, label %16

15:                                               ; preds = %10, %2
  store i32 -20, ptr %3, align 4
  store i32 1, ptr %7, align 4
  br label %35

16:                                               ; preds = %10
  %17 = load ptr, ptr %4, align 8, !tbaa !53
  %18 = call i64 @strtoimax(ptr noundef %17, ptr noundef %6, i32 noundef 10) #8
  %19 = load ptr, ptr %5, align 8, !tbaa !59
  store i64 %18, ptr %19, align 8, !tbaa !43
  %20 = load ptr, ptr %6, align 8, !tbaa !53
  %21 = load ptr, ptr %4, align 8, !tbaa !53
  %22 = icmp eq ptr %20, %21
  br i1 %22, label %32, label %23

23:                                               ; preds = %16
  %24 = load ptr, ptr %6, align 8, !tbaa !53
  %25 = load i8, ptr %24, align 1, !tbaa !61
  %26 = sext i8 %25 to i32
  %27 = icmp ne i32 %26, 0
  br i1 %27, label %32, label %28

28:                                               ; preds = %23
  %29 = call ptr @__errno_location() #12
  %30 = load i32, ptr %29, align 4, !tbaa !13
  %31 = icmp eq i32 %30, 75
  br i1 %31, label %32, label %34

32:                                               ; preds = %28, %23, %16
  %33 = load ptr, ptr %5, align 8, !tbaa !59
  store i64 0, ptr %33, align 8, !tbaa !43
  store i32 -20, ptr %3, align 4
  store i32 1, ptr %7, align 4
  br label %35

34:                                               ; preds = %28
  store i32 0, ptr %3, align 4
  store i32 1, ptr %7, align 4
  br label %35

35:                                               ; preds = %34, %32, %15
  call void @llvm.lifetime.end.p0(i64 8, ptr %6) #8
  %36 = load i32, ptr %3, align 4
  ret i32 %36
}