; Function Attrs: nounwind uwtable
define internal fastcc range(i32 -20, 1) i32 @string_to_number(ptr noundef %0, ptr noundef nonnull writeonly captures(none) %1) unnamed_addr #0 {
  %3 = alloca ptr, align 8
  call void @llvm.lifetime.start.p0(i64 8, ptr nonnull %3) #10
  %4 = icmp eq ptr %0, null
  br i1 %4, label %19, label %5

5:                                                ; preds = %2
  %6 = load i8, ptr %0, align 1, !tbaa !40
  %7 = icmp eq i8 %6, 0
  br i1 %7, label %19, label %8

8:                                                ; preds = %5
  %9 = call i64 @strtoimax(ptr noundef nonnull %0, ptr noundef nonnull %3, i32 noundef 10) #10
  store i64 %9, ptr %1, align 8, !tbaa !44
  %10 = load ptr, ptr %3, align 8, !tbaa !41
  %11 = icmp eq ptr %10, %0
  br i1 %11, label %18, label %12

12:                                               ; preds = %8
  %13 = load i8, ptr %10, align 1, !tbaa !40
  %.not = icmp eq i8 %13, 0
  br i1 %.not, label %14, label %18

14:                                               ; preds = %12
  %15 = tail call ptr @__errno_location() #14
  %16 = load i32, ptr %15, align 4, !tbaa !42
  %17 = icmp eq i32 %16, 75
  br i1 %17, label %18, label %19

18:                                               ; preds = %14, %12, %8
  store i64 0, ptr %1, align 8, !tbaa !44
  br label %19

19:                                               ; preds = %14, %2, %5, %18
  %.0 = phi i32 [ -20, %18 ], [ -20, %5 ], [ -20, %2 ], [ 0, %14 ]
  call void @llvm.lifetime.end.p0(i64 8, ptr nonnull %3) #10
  ret i32 %.0
}